target datalayout = "e-m:e-p270:32:32-p271:32:32-p272:64:64-i64:64-i128:128-f80:128-n8:16:32:64-S128"
target triple = "x86_64-pc-linux-gnu"

%struct.AVFilterContext = type { ptr, ptr, ptr, ptr, ptr, i32, ptr, ptr, i32, ptr, ptr, i32, i32, ptr, ptr, ptr, ptr, i32, ptr, i32, i32 }
%struct.VectorscopeContext = type { ptr, i32, i32, float, [4 x i16], [2 x float], [4 x i32], [4 x i32], i32, i32, i32, i32, i32, i32, i32, i32, i32, i32, i32, float, float, float, float, [2 x i32], i32, i32, i32, i32, i32, ptr, ptr, ptr, ptr }
%struct.AVFilterLink = type { ptr, ptr, ptr, ptr, i32, i32, i32, i32, %struct.AVRational, i32, i32, i32, %struct.AVChannelLayout, %struct.AVRational, ptr, i32, %struct.AVFilterFormatsConfig, %struct.AVFilterFormatsConfig }
%struct.AVChannelLayout = type { i32, i32, %union.anon.1, ptr }
%union.anon.1 = type { i64 }
%struct.AVRational = type { i32, i32 }
%struct.AVFilterFormatsConfig = type { ptr, ptr, ptr, ptr, ptr }
%struct.AVFilterFormats = type { i32, ptr, i32, ptr }
%struct.AVPixFmtDescriptor = type { ptr, i8, i8, i8, i64, [4 x %struct.AVComponentDescriptor], ptr }
%struct.AVComponentDescriptor = type { i32, i32, i32, i32, i32 }

@in1_pix_fmts = internal constant [17 x i32] [i32 79, i32 5, i32 14, i32 66, i32 68, i32 85, i32 91, i32 187, i32 131, i32 111, i32 71, i32 73, i32 75, i32 163, i32 135, i32 161, i32 -1], align 16
@out_rgb8_pix_fmts = internal constant [3 x i32] [i32 111, i32 71, i32 -1], align 4
@out_rgb9_pix_fmts = internal constant [2 x i32] [i32 73, i32 -1], align 4
@out_rgb10_pix_fmts = internal constant [3 x i32] [i32 75, i32 163, i32 -1], align 4
@out_rgb12_pix_fmts = internal constant [3 x i32] [i32 135, i32 161, i32 -1], align 4
@out_yuv8_pix_fmts = internal constant [3 x i32] [i32 79, i32 5, i32 -1], align 4
@out_yuv9_pix_fmts = internal constant [3 x i32] [i32 85, i32 66, i32 -1], align 4
@out_yuv10_pix_fmts = internal constant [3 x i32] [i32 91, i32 68, i32 -1], align 4
@out_yuv12_pix_fmts = internal constant [3 x i32] [i32 187, i32 131, i32 -1], align 4

; Function Attrs: nounwind uwtable
define internal i32 @query_formats(ptr noundef %0) #1 {
  %2 = alloca i32, align 4
  %3 = alloca ptr, align 8
  %4 = alloca ptr, align 8
  %5 = alloca ptr, align 8
  %6 = alloca ptr, align 8
  %7 = alloca ptr, align 8
  %8 = alloca i32, align 4
  %9 = alloca i32, align 4
  %10 = alloca i32, align 4
  %11 = alloca i32, align 4
  %12 = alloca i32, align 4
  %13 = alloca ptr, align 8
  store ptr %0, ptr %3, align 8, !tbaa !4
  call void @llvm.lifetime.start.p0(i64 8, ptr %4) #11
  %14 = load ptr, ptr %3, align 8, !tbaa !4
  %15 = getelementptr inbounds nuw %struct.AVFilterContext, ptr %14, i32 0, i32 9
  %16 = load ptr, ptr %15, align 8, !tbaa !9
  store ptr %16, ptr %4, align 8, !tbaa !22
  call void @llvm.lifetime.start.p0(i64 8, ptr %5) #11
  call void @llvm.lifetime.start.p0(i64 8, ptr %6) #11
  call void @llvm.lifetime.start.p0(i64 8, ptr %7) #11
  call void @llvm.lifetime.start.p0(i64 4, ptr %8) #11
  call void @llvm.lifetime.start.p0(i64 4, ptr %9) #11
  call void @llvm.lifetime.start.p0(i64 4, ptr %10) #11
  call void @llvm.lifetime.start.p0(i64 4, ptr %11) #11
  %17 = load ptr, ptr %3, align 8, !tbaa !4
  %18 = getelementptr inbounds nuw %struct.AVFilterContext, ptr %17, i32 0, i32 4
  %19 = load ptr, ptr %18, align 8, !tbaa !24
  %20 = getelementptr inbounds ptr, ptr %19, i64 0
  %21 = load ptr, ptr %20, align 8, !tbaa !25
  %22 = getelementptr inbounds nuw %struct.AVFilterLink, ptr %21, i32 0, i32 16
  %23 = getelementptr inbounds nuw %struct.AVFilterFormatsConfig, ptr %22, i32 0, i32 0
  %24 = load ptr, ptr %23, align 8, !tbaa !27
  %25 = icmp ne ptr %24, null
  br i1 %25, label %26, label %38

26:                                               ; preds = %1
  %27 = load ptr, ptr %3, align 8, !tbaa !4
  %28 = getelementptr inbounds nuw %struct.AVFilterContext, ptr %27, i32 0, i32 4
  %29 = load ptr, ptr %28, align 8, !tbaa !24
  %30 = getelementptr inbounds ptr, ptr %29, i64 0
  %31 = load ptr, ptr %30, align 8, !tbaa !25
  %32 = getelementptr inbounds nuw %struct.AVFilterLink, ptr %31, i32 0, i32 16
  %33 = getelementptr inbounds nuw %struct.AVFilterFormatsConfig, ptr %32, i32 0, i32 0
  %34 = load ptr, ptr %33, align 8, !tbaa !27
  %35 = getelementptr inbounds nuw %struct.AVFilterFormats, ptr %34, i32 0, i32 0
  %36 = load i32, ptr %35, align 8, !tbaa !35
  %37 = icmp ne i32 %36, 0
  br i1 %37, label %39, label %38

38:                                               ; preds = %26, %1
  store i32 -11, ptr %2, align 4
  store i32 1, ptr %12, align 4
  br label %216

39:                                               ; preds = %26
  %40 = load ptr, ptr %3, align 8, !tbaa !4
  %41 = getelementptr inbounds nuw %struct.AVFilterContext, ptr %40, i32 0, i32 4
  %42 = load ptr, ptr %41, align 8, !tbaa !24
  %43 = getelementptr inbounds ptr, ptr %42, i64 0
  %44 = load ptr, ptr %43, align 8, !tbaa !25
  %45 = getelementptr inbounds nuw %struct.AVFilterLink, ptr %44, i32 0, i32 17
  %46 = getelementptr inbounds nuw %struct.AVFilterFormatsConfig, ptr %45, i32 0, i32 0
  %47 = load ptr, ptr %46, align 8, !tbaa !40
  %48 = icmp ne ptr %47, null
  br i1 %48, label %89, label %49

49:                                               ; preds = %39
  call void @llvm.lifetime.start.p0(i64 8, ptr %13) #11
  %50 = load ptr, ptr %4, align 8, !tbaa !22
  %51 = getelementptr inbounds nuw %struct.VectorscopeContext, ptr %50, i32 0, i32 10
  %52 = load i32, ptr %51, align 4, !tbaa !41
  %53 = icmp eq i32 %52, 1
  br i1 %53, label %54, label %59

54:                                               ; preds = %49
  %55 = load ptr, ptr %4, align 8, !tbaa !22
  %56 = getelementptr inbounds nuw %struct.VectorscopeContext, ptr %55, i32 0, i32 11
  %57 = load i32, ptr %56, align 8, !tbaa !45
  %58 = icmp eq i32 %57, 2
  br i1 %58, label %69, label %59

59:                                               ; preds = %54, %49
  %60 = load ptr, ptr %4, align 8, !tbaa !22
  %61 = getelementptr inbounds nuw %struct.VectorscopeContext, ptr %60, i32 0, i32 10
  %62 = load i32, ptr %61, align 4, !tbaa !41
  %63 = icmp eq i32 %62, 2
  br i1 %63, label %64, label %70

64:                                               ; preds = %59
  %65 = load ptr, ptr %4, align 8, !tbaa !22
  %66 = getelementptr inbounds nuw %struct.VectorscopeContext, ptr %65, i32 0, i32 11
  %67 = load i32, ptr %66, align 8, !tbaa !45
  %68 = icmp eq i32 %67, 1
  br i1 %68, label %69, label %70

69:                                               ; preds = %64, %54
  store ptr @in2_pix_fmts, ptr %13, align 8, !tbaa !46
  br label %71

70:                                               ; preds = %64, %59
  store ptr @in1_pix_fmts, ptr %13, align 8, !tbaa !46
  br label %71

71:                                               ; preds = %70, %69
  %72 = load ptr, ptr %13, align 8, !tbaa !46
  %73 = call ptr @ff_make_format_list(ptr noundef %72)
  %74 = load ptr, ptr %3, align 8, !tbaa !4
  %75 = getelementptr inbounds nuw %struct.AVFilterContext, ptr %74, i32 0, i32 4
  %76 = load ptr, ptr %75, align 8, !tbaa !24
  %77 = getelementptr inbounds ptr, ptr %76, i64 0
  %78 = load ptr, ptr %77, align 8, !tbaa !25
  %79 = getelementptr inbounds nuw %struct.AVFilterLink, ptr %78, i32 0, i32 17
  %80 = getelementptr inbounds nuw %struct.AVFilterFormatsConfig, ptr %79, i32 0, i32 0
  %81 = call i32 @ff_formats_ref(ptr noundef %73, ptr noundef %80)
  store i32 %81, ptr %11, align 4, !tbaa !47
  %82 = icmp slt i32 %81, 0
  br i1 %82, label %83, label %85

83:                                               ; preds = %71
  %84 = load i32, ptr %11, align 4, !tbaa !47
  store i32 %84, ptr %2, align 4
  store i32 1, ptr %12, align 4
  br label %86

85:                                               ; preds = %71
  store i32 0, ptr %12, align 4
  br label %86

86:                                               ; preds = %85, %83
  call void @llvm.lifetime.end.p0(i64 8, ptr %13) #11
  %87 = load i32, ptr %12, align 4
  switch i32 %87, label %216 [
    i32 0, label %88
  ]

88:                                               ; preds = %86
  br label %89

89:                                               ; preds = %88, %39
  %90 = load ptr, ptr %3, align 8, !tbaa !4
  %91 = getelementptr inbounds nuw %struct.AVFilterContext, ptr %90, i32 0, i32 4
  %92 = load ptr, ptr %91, align 8, !tbaa !24
  %93 = getelementptr inbounds ptr, ptr %92, i64 0
  %94 = load ptr, ptr %93, align 8, !tbaa !25
  %95 = getelementptr inbounds nuw %struct.AVFilterLink, ptr %94, i32 0, i32 16
  %96 = getelementptr inbounds nuw %struct.AVFilterFormatsConfig, ptr %95, i32 0, i32 0
  %97 = load ptr, ptr %96, align 8, !tbaa !27
  store ptr %97, ptr %7, align 8, !tbaa !48
  %98 = load ptr, ptr %7, align 8, !tbaa !48
  %99 = getelementptr inbounds nuw %struct.AVFilterFormats, ptr %98, i32 0, i32 1
  %100 = load ptr, ptr %99, align 8, !tbaa !49
  %101 = getelementptr inbounds i32, ptr %100, i64 0
  %102 = load i32, ptr %101, align 4, !tbaa !47
  %103 = call ptr @av_pix_fmt_desc_get(i32 noundef %102)
  store ptr %103, ptr %6, align 8, !tbaa !50
  %104 = load ptr, ptr %6, align 8, !tbaa !50
  %105 = getelementptr inbounds nuw %struct.AVPixFmtDescriptor, ptr %104, i32 0, i32 4
  %106 = load i64, ptr %105, align 8, !tbaa !52
  %107 = and i64 %106, 32
  %108 = trunc i64 %107 to i32
  store i32 %108, ptr %9, align 4, !tbaa !47
  %109 = load ptr, ptr %6, align 8, !tbaa !50
  %110 = getelementptr inbounds nuw %struct.AVPixFmtDescriptor, ptr %109, i32 0, i32 5
  %111 = getelementptr inbounds [4 x %struct.AVComponentDescriptor], ptr %110, i64 0, i64 0
  %112 = getelementptr inbounds nuw %struct.AVComponentDescriptor, ptr %111, i32 0, i32 4
  %113 = load i32, ptr %112, align 8, !tbaa !55
  store i32 %113, ptr %8, align 4, !tbaa !47
  store i32 1, ptr %10, align 4, !tbaa !47
  br label %114

114:                                              ; preds = %146, %89
  %115 = load i32, ptr %10, align 4, !tbaa !47
  %116 = load ptr, ptr %7, align 8, !tbaa !48
  %117 = getelementptr inbounds nuw %struct.AVFilterFormats, ptr %116, i32 0, i32 0
  %118 = load i32, ptr %117, align 8, !tbaa !35
  %119 = icmp ult i32 %115, %118
  br i1 %119, label %120, label %149

120:                                              ; preds = %114
  %121 = load ptr, ptr %7, align 8, !tbaa !48
  %122 = getelementptr inbounds nuw %struct.AVFilterFormats, ptr %121, i32 0, i32 1
  %123 = load ptr, ptr %122, align 8, !tbaa !49
  %124 = load i32, ptr %10, align 4, !tbaa !47
  %125 = sext i32 %124 to i64
  %126 = getelementptr inbounds i32, ptr %123, i64 %125
  %127 = load i32, ptr %126, align 4, !tbaa !47
  %128 = call ptr @av_pix_fmt_desc_get(i32 noundef %127)
  store ptr %128, ptr %6, align 8, !tbaa !50
  %129 = load i32, ptr %9, align 4, !tbaa !47
  %130 = sext i32 %129 to i64
  %131 = load ptr, ptr %6, align 8, !tbaa !50
  %132 = getelementptr inbounds nuw %struct.AVPixFmtDescriptor, ptr %131, i32 0, i32 4
  %133 = load i64, ptr %132, align 8, !tbaa !52
  %134 = and i64 %133, 32
  %135 = icmp ne i64 %130, %134
  br i1 %135, label %144, label %136

136:                                              ; preds = %120
  %137 = load i32, ptr %8, align 4, !tbaa !47
  %138 = load ptr, ptr %6, align 8, !tbaa !50
  %139 = getelementptr inbounds nuw %struct.AVPixFmtDescriptor, ptr %138, i32 0, i32 5
  %140 = getelementptr inbounds [4 x %struct.AVComponentDescriptor], ptr %139, i64 0, i64 0
  %141 = getelementptr inbounds nuw %struct.AVComponentDescriptor, ptr %140, i32 0, i32 4
  %142 = load i32, ptr %141, align 8, !tbaa !55
  %143 = icmp ne i32 %137, %142
  br i1 %143, label %144, label %145

144:                                              ; preds = %136, %120
  store i32 -11, ptr %2, align 4
  store i32 1, ptr %12, align 4
  br label %216

145:                                              ; preds = %136
  br label %146

146:                                              ; preds = %145
  %147 = load i32, ptr %10, align 4, !tbaa !47
  %148 = add nsw i32 %147, 1
  store i32 %148, ptr %10, align 4, !tbaa !47
  br label %114, !llvm.loop !57

149:                                              ; preds = %114
  %150 = load i32, ptr %9, align 4, !tbaa !47
  %151 = icmp ne i32 %150, 0
  br i1 %151, label %152, label %156

152:                                              ; preds = %149
  %153 = load i32, ptr %8, align 4, !tbaa !47
  %154 = icmp eq i32 %153, 8
  br i1 %154, label %155, label %156

155:                                              ; preds = %152
  store ptr @out_rgb8_pix_fmts, ptr %5, align 8, !tbaa !46
  br label %201

156:                                              ; preds = %152, %149
  %157 = load i32, ptr %9, align 4, !tbaa !47
  %158 = icmp ne i32 %157, 0
  br i1 %158, label %159, label %163

159:                                              ; preds = %156
  %160 = load i32, ptr %8, align 4, !tbaa !47
  %161 = icmp eq i32 %160, 9
  br i1 %161, label %162, label %163

162:                                              ; preds = %159
  store ptr @out_rgb9_pix_fmts, ptr %5, align 8, !tbaa !46
  br label %200

163:                                              ; preds = %159, %156
  %164 = load i32, ptr %9, align 4, !tbaa !47
  %165 = icmp ne i32 %164, 0
  br i1 %165, label %166, label %170

166:                                              ; preds = %163
  %167 = load i32, ptr %8, align 4, !tbaa !47
  %168 = icmp eq i32 %167, 10
  br i1 %168, label %169, label %170

169:                                              ; preds = %166
  store ptr @out_rgb10_pix_fmts, ptr %5, align 8, !tbaa !46
  br label %199

170:                                              ; preds = %166, %163
  %171 = load i32, ptr %9, align 4, !tbaa !47
  %172 = icmp ne i32 %171, 0
  br i1 %172, label %173, label %177

173:                                              ; preds = %170
  %174 = load i32, ptr %8, align 4, !tbaa !47
  %175 = icmp eq i32 %174, 12
  br i1 %175, label %176, label %177

176:                                              ; preds = %173
  store ptr @out_rgb12_pix_fmts, ptr %5, align 8, !tbaa !46
  br label %198

177:                                              ; preds = %173, %170
  %178 = load i32, ptr %8, align 4, !tbaa !47
  %179 = icmp eq i32 %178, 8
  br i1 %179, label %180, label %181

180:                                              ; preds = %177
  store ptr @out_yuv8_pix_fmts, ptr %5, align 8, !tbaa !46
  br label %197

181:                                              ; preds = %177
  %182 = load i32, ptr %8, align 4, !tbaa !47
  %183 = icmp eq i32 %182, 9
  br i1 %183, label %184, label %185

184:                                              ; preds = %181
  store ptr @out_yuv9_pix_fmts, ptr %5, align 8, !tbaa !46
  br label %196

185:                                              ; preds = %181
  %186 = load i32, ptr %8, align 4, !tbaa !47
  %187 = icmp eq i32 %186, 10
  br i1 %187, label %188, label %189

188:                                              ; preds = %185
  store ptr @out_yuv10_pix_fmts, ptr %5, align 8, !tbaa !46
  br label %195

189:                                              ; preds = %185
  %190 = load i32, ptr %8, align 4, !tbaa !47
  %191 = icmp eq i32 %190, 12
  br i1 %191, label %192, label %193

192:                                              ; preds = %189
  store ptr @out_yuv12_pix_fmts, ptr %5, align 8, !tbaa !46
  br label %194

193:                                              ; preds = %189
  store i32 -11, ptr %2, align 4
  store i32 1, ptr %12, align 4
  br label %216

194:                                              ; preds = %192
  br label %195

195:                                              ; preds = %194, %188
  br label %196

196:                                              ; preds = %195, %184
  br label %197

197:                                              ; preds = %196, %180
  br label %198

198:                                              ; preds = %197, %176
  br label %199

199:                                              ; preds = %198, %169
  br label %200

200:                                              ; preds = %199, %162
  br label %201

201:                                              ; preds = %200, %155
  %202 = load ptr, ptr %5, align 8, !tbaa !46
  %203 = call ptr @ff_make_format_list(ptr noundef %202)
  %204 = load ptr, ptr %3, align 8, !tbaa !4
  %205 = getelementptr inbounds nuw %struct.AVFilterContext, ptr %204, i32 0, i32 7
  %206 = load ptr, ptr %205, align 8, !tbaa !59
  %207 = getelementptr inbounds ptr, ptr %206, i64 0
  %208 = load ptr, ptr %207, align 8, !tbaa !25
  %209 = getelementptr inbounds nuw %struct.AVFilterLink, ptr %208, i32 0, i32 16
  %210 = getelementptr inbounds nuw %struct.AVFilterFormatsConfig, ptr %209, i32 0, i32 0
  %211 = call i32 @ff_formats_ref(ptr noundef %203, ptr noundef %210)
  store i32 %211, ptr %11, align 4, !tbaa !47
  %212 = icmp slt i32 %211, 0
  br i1 %212, label %213, label %215

213:                                              ; preds = %201
  %214 = load i32, ptr %11, align 4, !tbaa !47
  store i32 %214, ptr %2, align 4
  store i32 1, ptr %12, align 4
  br label %216

215:                                              ; preds = %201
  store i32 0, ptr %2, align 4
  store i32 1, ptr %12, align 4
  br label %216

216:                                              ; preds = %215, %213, %193, %144, %86, %38
  call void @llvm.lifetime.end.p0(i64 4, ptr %11) #11
  call void @llvm.lifetime.end.p0(i64 4, ptr %10) #11
  call void @llvm.lifetime.end.p0(i64 4, ptr %9) #11
  call void @llvm.lifetime.end.p0(i64 4, ptr %8) #11
  call void @llvm.lifetime.end.p0(i64 8, ptr %7) #11
  call void @llvm.lifetime.end.p0(i64 8, ptr %6) #11
  call void @llvm.lifetime.end.p0(i64 8, ptr %5) #11
  call void @llvm.lifetime.end.p0(i64 8, ptr %4) #11
  %217 = load i32, ptr %2, align 4
  ret i32 %217
}