; Function Attrs: nounwind uwtable
define internal range(i32 -2147483648, 1) i32 @query_formats(ptr noundef readonly captures(none) %0) #1 {
  %2 = getelementptr inbounds nuw i8, ptr %0, i64 72
  %3 = load ptr, ptr %2, align 8, !tbaa !4
  %4 = getelementptr inbounds nuw i8, ptr %0, i64 32
  %5 = load ptr, ptr %4, align 8, !tbaa !20
  %6 = load ptr, ptr %5, align 8, !tbaa !21
  %7 = getelementptr inbounds nuw i8, ptr %6, i64 120
  %8 = load ptr, ptr %7, align 8, !tbaa !23
  %.not = icmp eq ptr %8, null
  br i1 %.not, label %.loopexit, label %9

9:                                                ; preds = %1
  %10 = load i32, ptr %8, align 8, !tbaa !32
  %.not53 = icmp eq i32 %10, 0
  br i1 %.not53, label %.loopexit, label %11

11:                                               ; preds = %9
  %12 = getelementptr inbounds nuw i8, ptr %6, i64 160
  %13 = load ptr, ptr %12, align 8, !tbaa !37
  %.not54 = icmp eq ptr %13, null
  br i1 %.not54, label %14, label %32

14:                                               ; preds = %11
  %15 = getelementptr inbounds nuw i8, ptr %3, i64 76
  %16 = load i32, ptr %15, align 4, !tbaa !38
  switch i32 %16, label %.thread [
    i32 1, label %17
    i32 2, label %21
  ]

17:                                               ; preds = %14
  %18 = getelementptr inbounds nuw i8, ptr %3, i64 80
  %19 = load i32, ptr %18, align 8, !tbaa !42
  %20 = icmp eq i32 %19, 2
  br i1 %20, label %25, label %.thread

21:                                               ; preds = %14
  %22 = getelementptr inbounds nuw i8, ptr %3, i64 80
  %23 = load i32, ptr %22, align 8, !tbaa !42
  %24 = icmp eq i32 %23, 1
  br i1 %24, label %25, label %.thread

.thread:                                          ; preds = %14, %17, %21
  br label %25

25:                                               ; preds = %17, %21, %.thread
  %.0 = phi ptr [ @in1_pix_fmts, %.thread ], [ @in2_pix_fmts, %21 ], [ @in2_pix_fmts, %17 ]
  %26 = tail call ptr @ff_make_format_list(ptr noundef nonnull %.0) #12
  %27 = load ptr, ptr %4, align 8, !tbaa !20
  %28 = load ptr, ptr %27, align 8, !tbaa !21
  %29 = getelementptr inbounds nuw i8, ptr %28, i64 160
  %30 = tail call i32 @ff_formats_ref(ptr noundef %26, ptr noundef nonnull %29) #12
  %31 = icmp sgt i32 %30, -1
  br i1 %31, label %._crit_edge62, label %.loopexit

._crit_edge62:                                    ; preds = %25
  %.pre = load ptr, ptr %4, align 8, !tbaa !20
  %.pre63 = load ptr, ptr %.pre, align 8, !tbaa !21
  %.phi.trans.insert = getelementptr inbounds nuw i8, ptr %.pre63, i64 120
  %.pre64 = load ptr, ptr %.phi.trans.insert, align 8, !tbaa !23
  br label %32

32:                                               ; preds = %._crit_edge62, %11
  %33 = phi ptr [ %.pre64, %._crit_edge62 ], [ %8, %11 ]
  %34 = getelementptr inbounds nuw i8, ptr %33, i64 8
  %35 = load ptr, ptr %34, align 8, !tbaa !43
  %36 = load i32, ptr %35, align 4, !tbaa !44
  %37 = tail call ptr @av_pix_fmt_desc_get(i32 noundef %36) #12
  %38 = getelementptr inbounds nuw i8, ptr %37, i64 16
  %39 = load i64, ptr %38, align 8, !tbaa !45
  %40 = getelementptr inbounds nuw i8, ptr %37, i64 40
  %41 = load i32, ptr %40, align 8, !tbaa !48
  %42 = load i32, ptr %33, align 8, !tbaa !32
  %43 = icmp ugt i32 %42, 1
  br i1 %43, label %.lr.ph, label %._crit_edge

44:                                               ; preds = %56
  %indvars.iv.next = add nuw nsw i64 %indvars.iv, 1
  %45 = load i32, ptr %33, align 8, !tbaa !32
  %46 = zext i32 %45 to i64
  %47 = icmp samesign ult i64 %indvars.iv.next, %46
  br i1 %47, label %.lr.ph, label %._crit_edge, !llvm.loop !50

.lr.ph:                                           ; preds = %32, %44
  %indvars.iv = phi i64 [ %indvars.iv.next, %44 ], [ 1, %32 ]
  %48 = load ptr, ptr %34, align 8, !tbaa !43
  %49 = getelementptr inbounds nuw i32, ptr %48, i64 %indvars.iv
  %50 = load i32, ptr %49, align 4, !tbaa !44
  %51 = tail call ptr @av_pix_fmt_desc_get(i32 noundef %50) #12
  %52 = getelementptr inbounds nuw i8, ptr %51, i64 16
  %53 = load i64, ptr %52, align 8, !tbaa !45
  %54 = xor i64 %53, %39
  %55 = and i64 %54, 32
  %.not55 = icmp eq i64 %55, 0
  br i1 %.not55, label %56, label %.loopexit

56:                                               ; preds = %.lr.ph
  %57 = getelementptr inbounds nuw i8, ptr %51, i64 40
  %58 = load i32, ptr %57, align 8, !tbaa !48
  %.not56 = icmp eq i32 %41, %58
  br i1 %.not56, label %44, label %.loopexit

._crit_edge:                                      ; preds = %44, %32
  %59 = and i64 %39, 32
  %60 = icmp ne i64 %59, 0
  %61 = icmp eq i32 %41, 8
  %or.cond = select i1 %60, i1 %61, i1 false
  br i1 %or.cond, label %71, label %62

62:                                               ; preds = %._crit_edge
  %63 = icmp eq i32 %41, 9
  %or.cond3 = select i1 %60, i1 %63, i1 false
  br i1 %or.cond3, label %71, label %64

64:                                               ; preds = %62
  %65 = icmp eq i32 %41, 10
  %or.cond5 = select i1 %60, i1 %65, i1 false
  br i1 %or.cond5, label %71, label %66

66:                                               ; preds = %64
  %67 = icmp eq i32 %41, 12
  %or.cond7 = select i1 %60, i1 %67, i1 false
  %68 = freeze i1 %or.cond7
  br i1 %68, label %71, label %switch.early.test

switch.early.test:                                ; preds = %66
  %69 = and i32 %41, -2
  %70 = icmp eq i32 %69, 8
  %out_rgb12_pix_fmts.mux = select i1 %61, ptr @out_yuv8_pix_fmts, ptr @out_yuv9_pix_fmts
  %out_rgb12_pix_fmts.mux.mux = select i1 %65, ptr @out_yuv10_pix_fmts, ptr @out_yuv12_pix_fmts
  %out_rgb12_pix_fmts.mux.mux.mux = select i1 %70, ptr %out_rgb12_pix_fmts.mux, ptr %out_rgb12_pix_fmts.mux.mux
  switch i32 %41, label %.loopexit [
    i32 12, label %71
    i32 10, label %71
    i32 9, label %71
    i32 8, label %71
  ]

71:                                               ; preds = %switch.early.test, %switch.early.test, %switch.early.test, %switch.early.test, %66, %64, %62, %._crit_edge
  %.050 = phi ptr [ @out_rgb8_pix_fmts, %._crit_edge ], [ @out_rgb9_pix_fmts, %62 ], [ @out_rgb10_pix_fmts, %64 ], [ %out_rgb12_pix_fmts.mux.mux.mux, %switch.early.test ], [ @out_rgb12_pix_fmts, %66 ], [ %out_rgb12_pix_fmts.mux.mux.mux, %switch.early.test ], [ %out_rgb12_pix_fmts.mux.mux.mux, %switch.early.test ], [ %out_rgb12_pix_fmts.mux.mux.mux, %switch.early.test ]
  %72 = tail call ptr @ff_make_format_list(ptr noundef nonnull %.050) #12
  %73 = getelementptr inbounds nuw i8, ptr %0, i64 56
  %74 = load ptr, ptr %73, align 8, !tbaa !52
  %75 = load ptr, ptr %74, align 8, !tbaa !21
  %76 = getelementptr inbounds nuw i8, ptr %75, i64 120
  %77 = tail call i32 @ff_formats_ref(ptr noundef %72, ptr noundef nonnull %76) #12
  %. = tail call i32 @llvm.smin.i32(i32 %77, i32 0)
  br label %.loopexit

.loopexit:                                        ; preds = %.lr.ph, %56, %switch.early.test, %71, %1, %9, %25
  %.049 = phi i32 [ %30, %25 ], [ -11, %9 ], [ -11, %1 ], [ %., %71 ], [ -11, %switch.early.test ], [ -11, %56 ], [ -11, %.lr.ph ]
  ret i32 %.049
}